target datalayout = "e-m:e-p270:32:32-p271:32:32-p272:64:64-i64:64-i128:128-f80:128-n8:16:32:64-S128"
target triple = "x86_64-unknown-linux-gnu"

%"class.hermes::vm::SamplingProfiler" = type { ptr, %"class.std::mutex", %"class.std::vector", i32, i32, %"struct.hermes::vm::SamplingProfiler::StackTrace", %"class.llvh::DenseMap", %"class.std::unordered_set", %"class.std::vector.10", %"class.std::vector.15", ptr }
%"class.std::mutex" = type { %"class.std::__mutex_base" }
%"class.std::__mutex_base" = type { %union.pthread_mutex_t }
%union.pthread_mutex_t = type { %struct.__pthread_mutex_s }
%struct.__pthread_mutex_s = type { i32, i32, i32, i32, i32, i16, i16, %struct.__pthread_internal_list }
%struct.__pthread_internal_list = type { ptr, ptr }
%"class.std::vector" = type { %"struct.std::_Vector_base" }
%"struct.std::_Vector_base" = type { %"struct.std::_Vector_base<hermes::vm::SamplingProfiler::StackTrace, std::allocator<hermes::vm::SamplingProfiler::StackTrace>>::_Vector_impl" }
%"struct.std::_Vector_base<hermes::vm::SamplingProfiler::StackTrace, std::allocator<hermes::vm::SamplingProfiler::StackTrace>>::_Vector_impl" = type { %"struct.std::_Vector_base<hermes::vm::SamplingProfiler::StackTrace, std::allocator<hermes::vm::SamplingProfiler::StackTrace>>::_Vector_impl_data" }
%"struct.std::_Vector_base<hermes::vm::SamplingProfiler::StackTrace, std::allocator<hermes::vm::SamplingProfiler::StackTrace>>::_Vector_impl_data" = type { ptr, ptr, ptr }
%"struct.hermes::vm::SamplingProfiler::StackTrace" = type { i64, %"class.std::chrono::time_point", %"class.std::vector.0" }
%"class.std::chrono::time_point" = type { %"class.std::chrono::duration" }
%"class.std::chrono::duration" = type { i64 }
%"class.std::vector.0" = type { %"struct.std::_Vector_base.1" }
%"struct.std::_Vector_base.1" = type { %"struct.std::_Vector_base<hermes::vm::SamplingProfiler::StackFrame, std::allocator<hermes::vm::SamplingProfiler::StackFrame>>::_Vector_impl" }
%"struct.std::_Vector_base<hermes::vm::SamplingProfiler::StackFrame, std::allocator<hermes::vm::SamplingProfiler::StackFrame>>::_Vector_impl" = type { %"struct.std::_Vector_base<hermes::vm::SamplingProfiler::StackFrame, std::allocator<hermes::vm::SamplingProfiler::StackFrame>>::_Vector_impl_data" }
%"struct.std::_Vector_base<hermes::vm::SamplingProfiler::StackFrame, std::allocator<hermes::vm::SamplingProfiler::StackFrame>>::_Vector_impl_data" = type { ptr, ptr, ptr }
%"class.llvh::DenseMap" = type <{ ptr, i32, i32, i32, [4 x i8] }>
%"class.std::unordered_set" = type { %"class.std::_Hashtable" }
%"class.std::_Hashtable" = type { ptr, i64, %"struct.std::__detail::_Hash_node_base", i64, %"struct.std::__detail::_Prime_rehash_policy", ptr }
%"struct.std::__detail::_Hash_node_base" = type { ptr }
%"struct.std::__detail::_Prime_rehash_policy" = type { float, i64 }
%"class.std::vector.10" = type { %"struct.std::_Vector_base.11" }
%"struct.std::_Vector_base.11" = type { %"struct.std::_Vector_base<hermes::vm::Domain *, std::allocator<hermes::vm::Domain *>>::_Vector_impl" }
%"struct.std::_Vector_base<hermes::vm::Domain *, std::allocator<hermes::vm::Domain *>>::_Vector_impl" = type { %"struct.std::_Vector_base<hermes::vm::Domain *, std::allocator<hermes::vm::Domain *>>::_Vector_impl_data" }
%"struct.std::_Vector_base<hermes::vm::Domain *, std::allocator<hermes::vm::Domain *>>::_Vector_impl_data" = type { ptr, ptr, ptr }
%"class.std::vector.15" = type { %"struct.std::_Vector_base.16" }
%"struct.std::_Vector_base.16" = type { %"struct.std::_Vector_base<hermes::vm::NativeFunction *, std::allocator<hermes::vm::NativeFunction *>>::_Vector_impl" }
%"struct.std::_Vector_base<hermes::vm::NativeFunction *, std::allocator<hermes::vm::NativeFunction *>>::_Vector_impl" = type { %"struct.std::_Vector_base<hermes::vm::NativeFunction *, std::allocator<hermes::vm::NativeFunction *>>::_Vector_impl_data" }
%"struct.std::_Vector_base<hermes::vm::NativeFunction *, std::allocator<hermes::vm::NativeFunction *>>::_Vector_impl_data" = type { ptr, ptr, ptr }
%"struct.hermes::vm::SamplingProfiler::StackFrame" = type { %union.anon.184, i32 }
%union.anon.184 = type { %"struct.hermes::vm::SamplingProfiler::JSFunctionFrameInfo" }
%"struct.hermes::vm::SamplingProfiler::JSFunctionFrameInfo" = type { ptr, i32, i32 }
%"class.std::basic_string_view" = type { i64, ptr }
%"struct.std::pair" = type <{ %"struct.std::__detail::_Node_iterator.240", i8, [7 x i8] }>
%"struct.std::__detail::_Node_iterator.240" = type { %"struct.std::__detail::_Node_iterator_base.241" }
%"struct.std::__detail::_Node_iterator_base.241" = type { ptr }
%"struct.std::__detail::_Hash_node_value_base.254" = type { %"struct.__gnu_cxx::__aligned_buffer.255" }
%"struct.__gnu_cxx::__aligned_buffer.255" = type { %"union.std::aligned_storage<32, 8>::type" }
%"union.std::aligned_storage<32, 8>::type" = type { [32 x i8] }

; Function Attrs: mustprogress nounwind uwtable
define linkonce_odr hidden noundef ptr @_ZN9__gnu_cxx16__aligned_bufferINSt7__cxx1112basic_stringIcSt11char_traitsIcESaIcEEEE7_M_addrEv(ptr noundef nonnull align 8 dereferenceable(32) %this) #0 comdat align 2 {
entry:
  %this.addr = alloca ptr, align 8
  store ptr %this, ptr %this.addr, align 8
  %this1 = load ptr, ptr %this.addr, align 8
  %_M_storage = getelementptr inbounds %"struct.__gnu_cxx::__aligned_buffer.255", ptr %this1, i32 0, i32 0
  ret ptr %_M_storage
}

; Function Attrs: mustprogress nounwind uwtable
define linkonce_odr hidden noundef ptr @_ZN9__gnu_cxx16__aligned_bufferINSt7__cxx1112basic_stringIcSt11char_traitsIcESaIcEEEE6_M_ptrEv(ptr noundef nonnull align 8 dereferenceable(32) %this) #0 comdat align 2 {
entry:
  %this.addr = alloca ptr, align 8
  store ptr %this, ptr %this.addr, align 8
  %this1 = load ptr, ptr %this.addr, align 8
  %call = call noundef ptr @_ZN9__gnu_cxx16__aligned_bufferINSt7__cxx1112basic_stringIcSt11char_traitsIcESaIcEEEE7_M_addrEv(ptr noundef nonnull align 8 dereferenceable(32) %this1) #10
  ret ptr %call
}

; Function Attrs: mustprogress nounwind uwtable
define linkonce_odr noundef ptr @_ZNSt8__detail21_Hash_node_value_baseINSt7__cxx1112basic_stringIcSt11char_traitsIcESaIcEEEE9_M_valptrEv(ptr noundef nonnull align 8 dereferenceable(32) %this) #0 comdat align 2 {
entry:
  %this.addr = alloca ptr, align 8
  store ptr %this, ptr %this.addr, align 8
  %this1 = load ptr, ptr %this.addr, align 8
  %_M_storage = getelementptr inbounds %"struct.std::__detail::_Hash_node_value_base.254", ptr %this1, i32 0, i32 0
  %call = call noundef ptr @_ZN9__gnu_cxx16__aligned_bufferINSt7__cxx1112basic_stringIcSt11char_traitsIcESaIcEEEE6_M_ptrEv(ptr noundef nonnull align 8 dereferenceable(32) %_M_storage) #10
  ret ptr %call
}

; Function Attrs: mustprogress nounwind uwtable
define linkonce_odr noundef nonnull align 8 dereferenceable(32) ptr @_ZNSt8__detail21_Hash_node_value_baseINSt7__cxx1112basic_stringIcSt11char_traitsIcESaIcEEEE4_M_vEv(ptr noundef nonnull align 8 dereferenceable(32) %this) #0 comdat align 2 {
entry:
  %this.addr = alloca ptr, align 8
  store ptr %this, ptr %this.addr, align 8
  %this1 = load ptr, ptr %this.addr, align 8
  %call = call noundef ptr @_ZNSt8__detail21_Hash_node_value_baseINSt7__cxx1112basic_stringIcSt11char_traitsIcESaIcEEEE9_M_valptrEv(ptr noundef nonnull align 8 dereferenceable(32) %this1) #10
  ret ptr %call
}

; Function Attrs: mustprogress nounwind uwtable
define linkonce_odr { ptr, i8 } @_ZNSt10_HashtableINSt7__cxx1112basic_stringIcSt11char_traitsIcESaIcEEES5_SaIS5_ENSt8__detail9_IdentityESt8equal_toIS5_ESt4hashIS5_ENS7_18_Mod_range_hashingENS7_20_Default_ranged_hashENS7_20_Prime_rehash_policyENS7_17_Hashtable_traitsILb1ELb1ELb1EEEE7emplaceIJRSt17basic_string_viewIcS3_EEEESt4pairINS7_14_Node_iteratorIS5_Lb1ELb1EEEbEDpOT_(ptr noundef nonnull align 8 dereferenceable(56) %this, ptr noundef nonnull align 8 dereferenceable(16) %__args) #0 comdat align 2 {
entry:
  %retval = alloca %"struct.std::pair", align 8
  %this.addr = alloca ptr, align 8
  %__args.addr = alloca ptr, align 8
  store ptr %this, ptr %this.addr, align 8
  store ptr %__args, ptr %__args.addr, align 8
  %this1 = load ptr, ptr %this.addr, align 8
  %0 = load ptr, ptr %__args.addr, align 8
  %call = call { ptr, i8 } @_ZNSt10_HashtableINSt7__cxx1112basic_stringIcSt11char_traitsIcESaIcEEES5_SaIS5_ENSt8__detail9_IdentityESt8equal_toIS5_ESt4hashIS5_ENS7_18_Mod_range_hashingENS7_20_Default_ranged_hashENS7_20_Prime_rehash_policyENS7_17_Hashtable_traitsILb1ELb1ELb1EEEE10_M_emplaceIJRSt17basic_string_viewIcS3_EEEESt4pairINS7_14_Node_iteratorIS5_Lb1ELb1EEEbESt17integral_constantIbLb1EEDpOT_(ptr noundef nonnull align 8 dereferenceable(56) %this1, ptr noundef nonnull align 8 dereferenceable(16) %0)
  %1 = getelementptr inbounds { ptr, i8 }, ptr %retval, i32 0, i32 0
  %2 = extractvalue { ptr, i8 } %call, 0
  store ptr %2, ptr %1, align 8
  %3 = getelementptr inbounds { ptr, i8 }, ptr %retval, i32 0, i32 1
  %4 = extractvalue { ptr, i8 } %call, 1
  store i8 %4, ptr %3, align 8
  %5 = load { ptr, i8 }, ptr %retval, align 8
  ret { ptr, i8 } %5
}

; Function Attrs: mustprogress nounwind uwtable
define linkonce_odr hidden noundef nonnull align 8 dereferenceable(24) ptr @_ZNSt6vectorIN6hermes2vm16SamplingProfiler10StackFrameESaIS3_EEixEm(ptr noundef nonnull align 8 dereferenceable(24) %this, i64 noundef %__n) #0 comdat align 2 {
entry:
  %this.addr = alloca ptr, align 8
  %__n.addr = alloca i64, align 8
  store ptr %this, ptr %this.addr, align 8
  store i64 %__n, ptr %__n.addr, align 8
  %this1 = load ptr, ptr %this.addr, align 8
  %_M_impl = getelementptr inbounds %"struct.std::_Vector_base.1", ptr %this1, i32 0, i32 0
  %_M_start = getelementptr inbounds %"struct.std::_Vector_base<hermes::vm::SamplingProfiler::StackFrame, std::allocator<hermes::vm::SamplingProfiler::StackFrame>>::_Vector_impl_data", ptr %_M_impl, i32 0, i32 0
  %0 = load ptr, ptr %_M_start, align 8
  %1 = load i64, ptr %__n.addr, align 8
  %add.ptr = getelementptr inbounds %"struct.hermes::vm::SamplingProfiler::StackFrame", ptr %0, i64 %1
  ret ptr %add.ptr
}

; Function Attrs: mustprogress nounwind uwtable
define linkonce_odr noundef nonnull align 8 dereferenceable(32) ptr @_ZNKSt8__detail14_Node_iteratorINSt7__cxx1112basic_stringIcSt11char_traitsIcESaIcEEELb1ELb1EEdeEv(ptr noundef nonnull align 8 dereferenceable(8) %this) #0 comdat align 2 {
entry:
  %this.addr = alloca ptr, align 8
  store ptr %this, ptr %this.addr, align 8
  %this1 = load ptr, ptr %this.addr, align 8
  %_M_cur = getelementptr inbounds %"struct.std::__detail::_Node_iterator_base.241", ptr %this1, i32 0, i32 0
  %0 = load ptr, ptr %_M_cur, align 8
  %add.ptr = getelementptr inbounds i8, ptr %0, i64 8
  %call = call noundef nonnull align 8 dereferenceable(32) ptr @_ZNSt8__detail21_Hash_node_value_baseINSt7__cxx1112basic_stringIcSt11char_traitsIcESaIcEEEE4_M_vEv(ptr noundef nonnull align 8 dereferenceable(32) %add.ptr) #10
  ret ptr %call
}

; Function Attrs: mustprogress nounwind uwtable
define linkonce_odr { ptr, i8 } @_ZNSt13unordered_setINSt7__cxx1112basic_stringIcSt11char_traitsIcESaIcEEESt4hashIS5_ESt8equal_toIS5_ESaIS5_EE7emplaceIJRSt17basic_string_viewIcS3_EEEESt4pairINSt8__detail14_Node_iteratorIS5_Lb1ELb1EEEbEDpOT_(ptr noundef nonnull align 8 dereferenceable(56) %this, ptr noundef nonnull align 8 dereferenceable(16) %__args) #0 comdat align 2 {
entry:
  %retval = alloca %"struct.std::pair", align 8
  %this.addr = alloca ptr, align 8
  %__args.addr = alloca ptr, align 8
  store ptr %this, ptr %this.addr, align 8
  store ptr %__args, ptr %__args.addr, align 8
  %this1 = load ptr, ptr %this.addr, align 8
  %_M_h = getelementptr inbounds %"class.std::unordered_set", ptr %this1, i32 0, i32 0
  %0 = load ptr, ptr %__args.addr, align 8
  %call = call { ptr, i8 } @_ZNSt10_HashtableINSt7__cxx1112basic_stringIcSt11char_traitsIcESaIcEEES5_SaIS5_ENSt8__detail9_IdentityESt8equal_toIS5_ESt4hashIS5_ENS7_18_Mod_range_hashingENS7_20_Default_ranged_hashENS7_20_Prime_rehash_policyENS7_17_Hashtable_traitsILb1ELb1ELb1EEEE7emplaceIJRSt17basic_string_viewIcS3_EEEESt4pairINS7_14_Node_iteratorIS5_Lb1ELb1EEEbEDpOT_(ptr noundef nonnull align 8 dereferenceable(56) %_M_h, ptr noundef nonnull align 8 dereferenceable(16) %0)
  %1 = getelementptr inbounds { ptr, i8 }, ptr %retval, i32 0, i32 0
  %2 = extractvalue { ptr, i8 } %call, 0
  store ptr %2, ptr %1, align 8
  %3 = getelementptr inbounds { ptr, i8 }, ptr %retval, i32 0, i32 1
  %4 = extractvalue { ptr, i8 } %call, 1
  store i8 %4, ptr %3, align 8
  %5 = load { ptr, i8 }, ptr %retval, align 8
  ret { ptr, i8 } %5
}

; Function Attrs: mustprogress nounwind uwtable
define hidden void @_ZN6hermes2vm16SamplingProfiler21recordPreSuspendStackESt17basic_string_viewIcSt11char_traitsIcEE(ptr noundef nonnull align 8 dereferenceable(256) %this, i64 %extraInfo.coerce0, ptr %extraInfo.coerce1) #0 align 2 {
entry:
  %extraInfo = alloca %"class.std::basic_string_view", align 8
  %this.addr = alloca ptr, align 8
  %retPair = alloca %"struct.std::pair", align 8
  %suspendExtraInfo = alloca ptr, align 8
  %leafFrame = alloca ptr, align 8
  %0 = getelementptr inbounds { i64, ptr }, ptr %extraInfo, i32 0, i32 0
  store i64 %extraInfo.coerce0, ptr %0, align 8
  %1 = getelementptr inbounds { i64, ptr }, ptr %extraInfo, i32 0, i32 1
  store ptr %extraInfo.coerce1, ptr %1, align 8
  store ptr %this, ptr %this.addr, align 8
  %this1 = load ptr, ptr %this.addr, align 8
  %suspendEventExtraInfoSet_ = getelementptr inbounds %"class.hermes::vm::SamplingProfiler", ptr %this1, i32 0, i32 7
  %call = call { ptr, i8 } @_ZNSt13unordered_setINSt7__cxx1112basic_stringIcSt11char_traitsIcESaIcEEESt4hashIS5_ESt8equal_toIS5_ESaIS5_EE7emplaceIJRSt17basic_string_viewIcS3_EEEESt4pairINSt8__detail14_Node_iteratorIS5_Lb1ELb1EEEbEDpOT_(ptr noundef nonnull align 8 dereferenceable(56) %suspendEventExtraInfoSet_, ptr noundef nonnull align 8 dereferenceable(16) %extraInfo)
  %2 = getelementptr inbounds { ptr, i8 }, ptr %retPair, i32 0, i32 0
  %3 = extractvalue { ptr, i8 } %call, 0
  store ptr %3, ptr %2, align 8
  %4 = getelementptr inbounds { ptr, i8 }, ptr %retPair, i32 0, i32 1
  %5 = extractvalue { ptr, i8 } %call, 1
  store i8 %5, ptr %4, align 8
  %first = getelementptr inbounds %"struct.std::pair", ptr %retPair, i32 0, i32 0
  %call2 = call noundef nonnull align 8 dereferenceable(32) ptr @_ZNKSt8__detail14_Node_iteratorINSt7__cxx1112basic_stringIcSt11char_traitsIcESaIcEEELb1ELb1EEdeEv(ptr noundef nonnull align 8 dereferenceable(8) %first) #10
  store ptr %call2, ptr %suspendExtraInfo, align 8
  %preSuspendStackStorage_ = getelementptr inbounds %"class.hermes::vm::SamplingProfiler", ptr %this1, i32 0, i32 5
  %stack = getelementptr inbounds %"struct.hermes::vm::SamplingProfiler::StackTrace", ptr %preSuspendStackStorage_, i32 0, i32 2
  %call3 = call noundef nonnull align 8 dereferenceable(24) ptr @_ZNSt6vectorIN6hermes2vm16SamplingProfiler10StackFrameESaIS3_EEixEm(ptr noundef nonnull align 8 dereferenceable(24) %stack, i64 noundef 0) #10
  store ptr %call3, ptr %leafFrame, align 8
  %6 = load ptr, ptr %leafFrame, align 8
  %kind = getelementptr inbounds %"struct.hermes::vm::SamplingProfiler::StackFrame", ptr %6, i32 0, i32 1
  store i32 3, ptr %kind, align 8
  %7 = load ptr, ptr %suspendExtraInfo, align 8
  %8 = load ptr, ptr %leafFrame, align 8
  %9 = getelementptr inbounds %"struct.hermes::vm::SamplingProfiler::StackFrame", ptr %8, i32 0, i32 0
  store ptr %7, ptr %9, align 8
  %preSuspendStackStorage_4 = getelementptr inbounds %"class.hermes::vm::SamplingProfiler", ptr %this1, i32 0, i32 5
  %call5 = call noundef i32 @_ZN6hermes2vm16SamplingProfiler16walkRuntimeStackERNS1_10StackTraceENS1_6InLoomEj(ptr noundef nonnull align 8 dereferenceable(256) %this1, ptr noundef nonnull align 8 dereferenceable(40) %preSuspendStackStorage_4, i32 noundef 0, i32 noundef 1)
  %preSuspendStackDepth_ = getelementptr inbounds %"class.hermes::vm::SamplingProfiler", ptr %this1, i32 0, i32 4
  store volatile i32 %call5, ptr %preSuspendStackDepth_, align 4
  ret void
}