; Function Attrs: mustprogress nounwind uwtable
define hidden void @_ZN6hermes2vm16SamplingProfiler21recordPreSuspendStackESt17basic_string_viewIcSt11char_traitsIcEE(ptr noundef nonnull align 8 dereferenceable(256) %this, i64 %extraInfo.coerce0, ptr %extraInfo.coerce1) local_unnamed_addr #0 align 2 {
entry:
  %extraInfo = alloca %"class.std::basic_string_view", align 8
  store i64 %extraInfo.coerce0, ptr %extraInfo, align 8
  %0 = getelementptr inbounds i8, ptr %extraInfo, i64 8
  store ptr %extraInfo.coerce1, ptr %0, align 8
  %suspendEventExtraInfoSet_ = getelementptr inbounds i8, ptr %this, i64 144
  %call.i.i = call { ptr, i8 } @_ZNSt10_HashtableINSt7__cxx1112basic_stringIcSt11char_traitsIcESaIcEEES5_SaIS5_ENSt8__detail9_IdentityESt8equal_toIS5_ESt4hashIS5_ENS7_18_Mod_range_hashingENS7_20_Default_ranged_hashENS7_20_Prime_rehash_policyENS7_17_Hashtable_traitsILb1ELb1ELb1EEEE10_M_emplaceIJRSt17basic_string_viewIcS3_EEEESt4pairINS7_14_Node_iteratorIS5_Lb1ELb1EEEbESt17integral_constantIbLb1EEDpOT_(ptr noundef nonnull align 8 dereferenceable(56) %suspendEventExtraInfoSet_, ptr noundef nonnull align 8 dereferenceable(16) %extraInfo)
  %1 = extractvalue { ptr, i8 } %call.i.i, 0
  %add.ptr.i = getelementptr inbounds i8, ptr %1, i64 8
  %preSuspendStackStorage_ = getelementptr inbounds i8, ptr %this, i64 80
  %stack = getelementptr inbounds i8, ptr %this, i64 96
  %2 = load ptr, ptr %stack, align 8
  %kind = getelementptr inbounds i8, ptr %2, i64 16
  store i32 3, ptr %kind, align 8
  store ptr %add.ptr.i, ptr %2, align 8
  %call5 = call noundef i32 @_ZN6hermes2vm16SamplingProfiler16walkRuntimeStackERNS1_10StackTraceENS1_6InLoomEj(ptr noundef nonnull align 8 dereferenceable(256) %this, ptr noundef nonnull align 8 dereferenceable(40) %preSuspendStackStorage_, i32 noundef 0, i32 noundef 1)
  %preSuspendStackDepth_ = getelementptr inbounds i8, ptr %this, i64 76
  store volatile i32 %call5, ptr %preSuspendStackDepth_, align 4
  ret void
}